#include <math.h>
#include <stdio.h>
#include <stdlib.h>
#include <string.h>


int main(int argc, char* argv[])
{
    int x,y=0;
	scanf("%d",&x);	
	while(x>0){
		y=(y+x%10)*10;
		x=x/10;
	}
	y=y/10;
	printf("%d\n",y);
	return 0;
}
